target datalayout = "e-m:e-p270:32:32-p271:32:32-p272:64:64-i64:64-i128:128-f80:128-n8:16:32:64-S128"
target triple = "x86_64-pc-linux-gnu"

%struct.ImVec2 = type { float, float }
%struct.ImGuiStyle = type { float, float, %struct.ImVec2, float, float, float, %struct.ImVec2, %struct.ImVec2, i32, float, float, float, float, %struct.ImVec2, float, float, %struct.ImVec2, %struct.ImVec2, %struct.ImVec2, %struct.ImVec2, float, float, float, float, float, float, float, float, float, float, float, float, float, float, %struct.ImVec2, i32, %struct.ImVec2, %struct.ImVec2, float, %struct.ImVec2, %struct.ImVec2, %struct.ImVec2, %struct.ImVec2, float, i8, i8, i8, float, float, [56 x %struct.ImVec4], float, float, float, i32, i32 }
%struct.ImVec4 = type { float, float, float, float }
%struct.ImGuiIO = type { i32, i32, %struct.ImVec2, float, float, ptr, ptr, ptr, ptr, float, i8, ptr, %struct.ImVec2, i8, i8, i8, i8, i8, i8, i8, i8, i8, i8, i8, i8, i8, i8, i8, i8, i8, float, float, float, float, float, float, i8, i8, i8, i8, i8, i8, i8, i8, i8, i8, ptr, ptr, ptr, ptr, ptr, i8, i8, i8, i8, i8, i8, i8, float, i32, i32, i32, i32, %struct.ImVec2, ptr, %struct.ImVec2, [5 x i8], float, float, i32, i8, i8, i8, i8, i32, [154 x %struct.ImGuiKeyData], i8, %struct.ImVec2, [5 x %struct.ImVec2], [5 x double], [5 x i8], [5 x i8], [5 x i16], [5 x i16], [5 x i8], [5 x double], [5 x i8], [5 x i8], i8, i8, [5 x float], [5 x float], [5 x float], float, i8, i8, i16, %struct.ImVector, ptr, ptr, ptr }
%struct.ImGuiKeyData = type { i8, float, float, float }
%struct.ImVector = type { i32, i32, ptr }
%struct.ImGuiContext = type { i8, i8, %struct.ImGuiIO, %struct.ImGuiPlatformIO, %struct.ImGuiStyle, ptr, float, float, float, float, %struct.ImDrawListSharedData, double, i32, i32, i32, i32, i8, i8, i8, i8, ptr, [16 x i8], %struct.ImVector.1, %struct.ImVector.1, i32, i32, %struct.ImVector.2, %struct.ImVector.2, %struct.ImVector.2, %struct.ImVector.3, %struct.ImGuiStorage, i32, float, i32, ptr, ptr, ptr, ptr, ptr, ptr, %struct.ImVec2, i32, i32, float, %struct.ImVec2, %struct.ImVec2, i32, i32, i32, i32, i32, float, float, i8, i8, i8, i32, i32, float, i8, i8, i8, i8, i8, i8, i8, i8, %struct.ImVec2, ptr, i32, i32, %struct.ImGuiDeactivatedItemData, %struct.ImGuiDataTypeStorage, i32, float, double, double, double, %struct.ImBitArray, [154 x %struct.ImGuiKeyOwnerData], %struct.ImGuiKeyRoutingTable, i32, i8, i32, i32, i32, i32, %struct.ImGuiNextItemData, %struct.ImGuiLastItemData, %struct.ImGuiNextWindowData, i8, i32, %struct.ImVector.6, %struct.ImVector.7, %struct.ImVector.8, %struct.ImVector.9, %struct.ImVector.10, %struct.ImVector.11, %struct.ImVector.12, %struct.ImVector.12, %struct.ImVector.13, %struct.ImVector.14, i8, i8, i8, i8, i32, ptr, i32, i32, i32, i32, i32, i32, %struct.ImVector.9, i32, float, i32, i32, i32, i64, i8, i8, i8, i8, %struct.ImGuiNavItemData, i8, i8, i8, i32, i32, i32, i32, i32, i32, %struct.ImRect, %struct.ImRect, i32, i32, i32, %struct.ImGuiNavItemData, %struct.ImGuiNavItemData, %struct.ImGuiNavItemData, %struct.ImGuiNavItemData, i32, i32, i32, i32, i8, i8, i32, i32, ptr, ptr, ptr, float, float, i8, i32, %struct.ImVec2, %struct.ImVec2, float, i8, i8, i8, i32, i32, i32, [4 x i8], %struct.ImGuiPayload, %struct.ImRect, %struct.ImRect, i32, i32, float, i32, i32, i32, i32, %struct.ImVector.15, [16 x i8], i32, %struct.ImVector.16, ptr, i32, i32, %struct.ImVector.17, %struct.ImPool, %struct.ImVector.19, %struct.ImVector.20, ptr, %struct.ImPool.21, %struct.ImVector.23, %struct.ImVector.24, %struct.ImGuiBoxSelectState, ptr, i32, %struct.ImVector.25, %struct.ImPool.26, i32, i32, float, float, i32, i32, i32, float, %struct.ImVec2, %struct.ImGuiInputTextState, %struct.ImGuiInputTextDeactivatedState, %struct.ImFont, i32, %struct.ImGuiDataTypeStorage, i32, i32, i32, i32, i32, float, float, i32, %struct.ImVec4, %struct.ImGuiComboPreviewData, %struct.ImRect, i8, i16, float, float, float, i8, i8, float, float, float, i16, i16, ptr, %struct.ImVector.28, %struct.ImVector.30, %struct.ImGuiTypingSelectState, %struct.ImGuiPlatformImeData, %struct.ImGuiPlatformImeData, i8, float, %struct.ImGuiTextBuffer, %struct.ImVector.31, %struct.ImChunkStream, %struct.ImChunkStream.32, %struct.ImVector.33, i32, [10 x ptr], i8, i32, ptr, ptr, %struct.ImGuiTextBuffer, ptr, ptr, float, i8, i32, i32, i32, ptr, ptr, %struct.ImVec2, i8, i32, %struct.ImGuiErrorRecoveryState, ptr, i32, i32, %struct.ImGuiTextBuffer, %struct.ImGuiTextIndex, i32, i32, i8, i8, i8, i32, i8, i8, i8, i32, float, %struct.ImVec4, %struct.ImGuiMetricsConfig, %struct.ImGuiIDStackTool, %struct.ImGuiDebugAllocInfo, [60 x float], i32, i32, float, i32, i32, i32, %struct.ImVector.28, [64 x i8] }
%struct.ImGuiPlatformIO = type { ptr, ptr, ptr, ptr, ptr, ptr, ptr, i16, ptr }
%struct.ImDrawListSharedData = type <{ %struct.ImVec2, ptr, ptr, float, float, float, float, float, i32, %struct.ImVec4, %struct.ImVector.0, [48 x %struct.ImVec2], float, [64 x i8], [4 x i8] }>
%struct.ImVector.0 = type { i32, i32, ptr }
%struct.ImVector.1 = type { i32, i32, ptr }
%struct.ImVector.2 = type { i32, i32, ptr }
%struct.ImVector.3 = type { i32, i32, ptr }
%struct.ImGuiStorage = type { %struct.ImVector.4 }
%struct.ImVector.4 = type { i32, i32, ptr }
%struct.ImGuiDeactivatedItemData = type { i32, i32, i8, i8 }
%struct.ImBitArray = type { [5 x i32] }
%struct.ImGuiKeyOwnerData = type <{ i32, i32, i8, i8, [2 x i8] }>
%struct.ImGuiKeyRoutingTable = type { [154 x i16], %struct.ImVector.5, %struct.ImVector.5 }
%struct.ImVector.5 = type { i32, i32, ptr }
%struct.ImGuiNextItemData = type <{ i32, i32, i32, [4 x i8], i64, float, i32, i32, i8, i8, %struct.ImGuiDataTypeStorage, [2 x i8], i32, [4 x i8] }>
%struct.ImGuiLastItemData = type { i32, i32, i32, %struct.ImRect, %struct.ImRect, %struct.ImRect, %struct.ImRect, i32 }
%struct.ImGuiNextWindowData = type { i32, i32, i32, i32, %struct.ImVec2, %struct.ImVec2, %struct.ImVec2, %struct.ImVec2, %struct.ImVec2, i32, i32, i8, %struct.ImRect, ptr, ptr, float, %struct.ImVec2, i32 }
%struct.ImVector.6 = type { i32, i32, ptr }
%struct.ImVector.7 = type { i32, i32, ptr }
%struct.ImVector.8 = type { i32, i32, ptr }
%struct.ImVector.10 = type { i32, i32, ptr }
%struct.ImVector.11 = type { i32, i32, ptr }
%struct.ImVector.12 = type { i32, i32, ptr }
%struct.ImVector.13 = type { i32, i32, ptr }
%struct.ImVector.14 = type { i32, i32, ptr }
%struct.ImVector.9 = type { i32, i32, ptr }
%struct.ImGuiNavItemData = type { ptr, i32, i32, %struct.ImRect, i32, float, float, float, i64 }
%struct.ImGuiPayload = type <{ ptr, i32, i32, i32, i32, [33 x i8], i8, i8, [5 x i8] }>
%struct.ImVector.15 = type { i32, i32, ptr }
%struct.ImVector.16 = type { i32, i32, ptr }
%struct.ImVector.17 = type { i32, i32, ptr }
%struct.ImPool = type { %struct.ImVector.18, %struct.ImGuiStorage, i32, i32 }
%struct.ImVector.18 = type { i32, i32, ptr }
%struct.ImVector.19 = type { i32, i32, ptr }
%struct.ImVector.20 = type { i32, i32, ptr }
%struct.ImPool.21 = type { %struct.ImVector.22, %struct.ImGuiStorage, i32, i32 }
%struct.ImVector.22 = type { i32, i32, ptr }
%struct.ImVector.23 = type { i32, i32, ptr }
%struct.ImVector.24 = type { i32, i32, ptr }
%struct.ImGuiBoxSelectState = type <{ i32, i8, i8, i8, i8, i8, i16, i8, %struct.ImVec2, %struct.ImVec2, %struct.ImVec2, [4 x i8], ptr, i8, [3 x i8], %struct.ImRect, %struct.ImRect, %struct.ImRect, [4 x i8] }>
%struct.ImVector.25 = type { i32, i32, ptr }
%struct.ImPool.26 = type { %struct.ImVector.27, %struct.ImGuiStorage, i32, i32 }
%struct.ImVector.27 = type { i32, i32, ptr }
%struct.ImGuiInputTextState = type <{ ptr, ptr, i32, i32, i32, [4 x i8], ptr, %struct.ImVector.28, %struct.ImVector.28, %struct.ImVector.28, i32, %struct.ImVec2, float, i8, i8, i8, i8, i32, i32, [4 x i8] }>
%struct.ImGuiInputTextDeactivatedState = type { i32, %struct.ImVector.28 }
%struct.ImFont = type <{ %struct.ImVector.19, float, float, %struct.ImVector, %struct.ImVector.29, ptr, ptr, ptr, i16, i16, i16, i16, float, float, float, float, float, i32, i8, [1 x i8], [6 x i8] }>
%struct.ImVector.29 = type { i32, i32, ptr }
%struct.ImGuiDataTypeStorage = type { [8 x i8] }
%struct.ImGuiComboPreviewData = type { %struct.ImRect, %struct.ImVec2, %struct.ImVec2, %struct.ImVec2, float, i32 }
%struct.ImRect = type { %struct.ImVec2, %struct.ImVec2 }
%struct.ImVector.30 = type { i32, i32, ptr }
%struct.ImGuiTypingSelectState = type <{ %struct.ImGuiTypingSelectRequest, [64 x i8], i32, i32, float, i8, [3 x i8] }>
%struct.ImGuiTypingSelectRequest = type { i32, i32, ptr, i8, i8, i8 }
%struct.ImGuiPlatformImeData = type { i8, %struct.ImVec2, float }
%struct.ImVector.31 = type { i32, i32, ptr }
%struct.ImChunkStream = type { %struct.ImVector.28 }
%struct.ImChunkStream.32 = type { %struct.ImVector.28 }
%struct.ImVector.33 = type { i32, i32, ptr }
%struct.ImGuiErrorRecoveryState = type { i16, i16, i16, i16, i16, i16, i16, i16, i16, i16, i16 }
%struct.ImGuiTextBuffer = type { %struct.ImVector.28 }
%struct.ImGuiTextIndex = type <{ %struct.ImVector.10, i32, [4 x i8] }>
%struct.ImGuiMetricsConfig = type { i8, i8, i8, i8, i8, i8, i8, i8, i8, i32, i32, i32, i32 }
%struct.ImGuiIDStackTool = type { i32, i32, i32, %struct.ImVector.34, i8, float }
%struct.ImVector.34 = type { i32, i32, ptr }
%struct.ImGuiDebugAllocInfo = type { i32, i32, i16, [6 x %struct.ImGuiDebugAllocEntry] }
%struct.ImGuiDebugAllocEntry = type { i32, i16, i16 }
%struct.ImVector.28 = type { i32, i32, ptr }
%struct.ImGuiDataVarInfo = type { i32 }
%struct.ImGuiStyleMod = type { i32, %union.anon.47 }
%union.anon.47 = type { [2 x i32] }

@GImGui = global ptr null, align 8
@.str.12 = private unnamed_addr constant [48 x i8] c"Calling PushStyleVar() variant with wrong type!\00", align 1

; Function Attrs: mustprogress nounwind uwtable
define linkonce_odr void @_ZN13ImGuiStyleModC2Ei6ImVec2(ptr noundef nonnull align 4 dereferenceable(12) %0, i32 noundef %1, <2 x float> %2) unnamed_addr #15 comdat align 2 {
  %4 = alloca %struct.ImVec2, align 4
  %5 = alloca ptr, align 8
  %6 = alloca i32, align 4
  store <2 x float> %2, ptr %4, align 4
  store ptr %0, ptr %5, align 8, !tbaa !528
  store i32 %1, ptr %6, align 4, !tbaa !125
  %7 = load ptr, ptr %5, align 8
  %8 = load i32, ptr %6, align 4, !tbaa !125
  %9 = getelementptr inbounds nuw %struct.ImGuiStyleMod, ptr %7, i32 0, i32 0
  store i32 %8, ptr %9, align 4, !tbaa !532
  %10 = getelementptr inbounds nuw %struct.ImVec2, ptr %4, i32 0, i32 0
  %11 = load float, ptr %10, align 4, !tbaa !57
  %12 = getelementptr inbounds nuw %struct.ImGuiStyleMod, ptr %7, i32 0, i32 1
  %13 = getelementptr inbounds [2 x float], ptr %12, i64 0, i64 0
  store float %11, ptr %13, align 4, !tbaa !252
  %14 = getelementptr inbounds nuw %struct.ImVec2, ptr %4, i32 0, i32 1
  %15 = load float, ptr %14, align 4, !tbaa !58
  %16 = getelementptr inbounds nuw %struct.ImGuiStyleMod, ptr %7, i32 0, i32 1
  %17 = getelementptr inbounds [2 x float], ptr %16, i64 0, i64 1
  store float %15, ptr %17, align 4, !tbaa !252
  ret void
}

; Function Attrs: mustprogress nounwind uwtable
define linkonce_odr noundef ptr @_ZNK16ImGuiDataVarInfo9GetVarPtrEPv(ptr noundef nonnull align 4 dereferenceable(4) %0, ptr noundef %1) #1 comdat align 2 {
  %3 = alloca ptr, align 8
  %4 = alloca ptr, align 8
  store ptr %0, ptr %3, align 8, !tbaa !524
  store ptr %1, ptr %4, align 8, !tbaa !300
  %5 = load ptr, ptr %3, align 8
  %6 = load ptr, ptr %4, align 8, !tbaa !300
  %7 = load i32, ptr %5, align 4
  %8 = lshr i32 %7, 16
  %9 = sext i32 %8 to i64
  %10 = getelementptr inbounds i8, ptr %6, i64 %9
  ret ptr %10
}

; Function Attrs: mustprogress nounwind uwtable
define noundef ptr @_ZN5ImGui15GetStyleVarInfoEi(i32 noundef %0) #1 {
  %2 = alloca i32, align 4
  store i32 %0, ptr %2, align 4, !tbaa !125
  %3 = load i32, ptr %2, align 4, !tbaa !125
  %4 = sext i32 %3 to i64
  %5 = getelementptr inbounds [33 x %struct.ImGuiDataVarInfo], ptr @_ZL14GStyleVarsInfo, i64 0, i64 %4
  ret ptr %5
}

; Function Attrs: mustprogress uwtable
define void @_ZN5ImGui13PushStyleVarXEif(i32 noundef %0, float noundef %1) #5 {
  %3 = alloca i32, align 4
  %4 = alloca float, align 4
  %5 = alloca ptr, align 8
  %6 = alloca ptr, align 8
  %7 = alloca i32, align 4
  %8 = alloca ptr, align 8
  %9 = alloca %struct.ImGuiStyleMod, align 4
  %10 = alloca %struct.ImVec2, align 4
  store i32 %0, ptr %3, align 4, !tbaa !125
  store float %1, ptr %4, align 4, !tbaa !17
  call void @llvm.lifetime.start.p0(i64 8, ptr %5) #16
  %11 = load ptr, ptr @GImGui, align 8, !tbaa !139
  store ptr %11, ptr %5, align 8, !tbaa !139
  call void @llvm.lifetime.start.p0(i64 8, ptr %6) #16
  %12 = load i32, ptr %3, align 4, !tbaa !125
  %13 = call noundef ptr @_ZN5ImGui15GetStyleVarInfoEi(i32 noundef %12)
  store ptr %13, ptr %6, align 8, !tbaa !524
  %14 = load ptr, ptr %6, align 8, !tbaa !524
  %15 = load i32, ptr %14, align 4
  %16 = shl i32 %15, 24
  %17 = ashr i32 %16, 24
  %18 = icmp ne i32 %17, 8
  br i1 %18, label %25, label %19

19:                                               ; preds = %2
  %20 = load ptr, ptr %6, align 8, !tbaa !524
  %21 = load i32, ptr %20, align 4
  %22 = lshr i32 %21, 8
  %23 = and i32 %22, 255
  %24 = icmp ne i32 %23, 2
  br i1 %24, label %25, label %32

25:                                               ; preds = %19, %2
  br label %26

26:                                               ; preds = %25
  %27 = call noundef zeroext i1 @_ZN5ImGui8ErrorLogEPKc(ptr noundef @.str.12)
  br i1 %27, label %28, label %29

28:                                               ; preds = %26
  br label %29

29:                                               ; preds = %28, %26
  br label %30

30:                                               ; preds = %29
  br label %31

31:                                               ; preds = %30
  store i32 1, ptr %7, align 4
  br label %45

32:                                               ; preds = %19
  call void @llvm.lifetime.start.p0(i64 8, ptr %8) #16
  %33 = load ptr, ptr %6, align 8, !tbaa !524
  %34 = load ptr, ptr %5, align 8, !tbaa !139
  %35 = getelementptr inbounds nuw %struct.ImGuiContext, ptr %34, i32 0, i32 4
  %36 = call noundef ptr @_ZNK16ImGuiDataVarInfo9GetVarPtrEPv(ptr noundef nonnull align 4 dereferenceable(4) %33, ptr noundef %35)
  store ptr %36, ptr %8, align 8, !tbaa !55
  %37 = load ptr, ptr %5, align 8, !tbaa !139
  %38 = getelementptr inbounds nuw %struct.ImGuiContext, ptr %37, i32 0, i32 93
  call void @llvm.lifetime.start.p0(i64 12, ptr %9) #16
  %39 = load i32, ptr %3, align 4, !tbaa !125
  %40 = load ptr, ptr %8, align 8, !tbaa !55
  call void @llvm.memcpy.p0.p0.i64(ptr align 4 %10, ptr align 4 %40, i64 8, i1 false), !tbaa.struct !16
  %41 = load <2 x float>, ptr %10, align 4
  call void @_ZN13ImGuiStyleModC2Ei6ImVec2(ptr noundef nonnull align 4 dereferenceable(12) %9, i32 noundef %39, <2 x float> %41)
  call void @_ZN8ImVectorI13ImGuiStyleModE9push_backERKS0_(ptr noundef nonnull align 8 dereferenceable(16) %38, ptr noundef nonnull align 4 dereferenceable(12) %9)
  call void @llvm.lifetime.end.p0(i64 12, ptr %9) #16
  %42 = load float, ptr %4, align 4, !tbaa !17
  %43 = load ptr, ptr %8, align 8, !tbaa !55
  %44 = getelementptr inbounds nuw %struct.ImVec2, ptr %43, i32 0, i32 0
  store float %42, ptr %44, align 4, !tbaa !57
  call void @llvm.lifetime.end.p0(i64 8, ptr %8) #16
  store i32 0, ptr %7, align 4
  br label %45

45:                                               ; preds = %32, %31
  call void @llvm.lifetime.end.p0(i64 8, ptr %6) #16
  call void @llvm.lifetime.end.p0(i64 8, ptr %5) #16
  %46 = load i32, ptr %7, align 4
  switch i32 %46, label %48 [
    i32 0, label %47
    i32 1, label %47
  ]

47:                                               ; preds = %45, %45
  ret void

48:                                               ; preds = %45
  unreachable
}