; Function Attrs: mustprogress uwtable
define void @_ZN5ImGui13PushStyleVarXEif(i32 noundef %0, float noundef %1) local_unnamed_addr #12 {
  %3 = alloca %struct.ImGuiStyleMod, align 4
  %4 = sext i32 %0 to i64
  %5 = getelementptr inbounds [33 x %struct.ImGuiDataVarInfo], ptr @_ZL14GStyleVarsInfo, i64 0, i64 %4
  %6 = load i32, ptr %5, align 4
  %7 = and i32 %6, 65535
  %or.cond = icmp eq i32 %7, 520
  br i1 %or.cond, label %10, label %8

8:                                                ; preds = %2
  %9 = tail call noundef zeroext i1 @_ZN5ImGui8ErrorLogEPKc(ptr noundef nonnull @.str.12)
  br label %19

10:                                               ; preds = %2
  %11 = load ptr, ptr @GImGui, align 8, !tbaa !216
  %12 = getelementptr inbounds nuw i8, ptr %11, i64 3096
  %13 = lshr i32 %6, 16
  %14 = zext nneg i32 %13 to i64
  %15 = getelementptr inbounds nuw i8, ptr %12, i64 %14
  %16 = getelementptr inbounds nuw i8, ptr %11, i64 7752
  call void @llvm.lifetime.start.p0(i64 12, ptr nonnull %3) #44
  %.sroa.0.0.copyload = load <2 x float>, ptr %15, align 4
  store i32 %0, ptr %3, align 4, !tbaa !444
  %.sroa.0.0.vec.extract.i = extractelement <2 x float> %.sroa.0.0.copyload, i64 0
  %17 = getelementptr inbounds nuw i8, ptr %3, i64 4
  store float %.sroa.0.0.vec.extract.i, ptr %17, align 4, !tbaa !211
  %.sroa.0.4.vec.extract.i = extractelement <2 x float> %.sroa.0.0.copyload, i64 1
  %18 = getelementptr inbounds nuw i8, ptr %3, i64 8
  store float %.sroa.0.4.vec.extract.i, ptr %18, align 4, !tbaa !211
  call void @_ZN8ImVectorI13ImGuiStyleModE9push_backERKS0_(ptr noundef nonnull align 8 dereferenceable(16) %16, ptr noundef nonnull align 4 dereferenceable(12) %3)
  call void @llvm.lifetime.end.p0(i64 12, ptr nonnull %3) #44
  store float %1, ptr %15, align 4, !tbaa !50
  br label %19

19:                                               ; preds = %10, %8
  ret void
}